; Function Attrs: nounwind uwtable
define ptr @l_Lean_Elab_Tactic_classical___rarg(ptr noundef %0, ptr noundef %1, ptr noundef %2, ptr noundef %3, ptr noundef %4) #0 {
  %6 = getelementptr inbounds nuw i8, ptr %0, i64 16
  %7 = load ptr, ptr %6, align 8, !tbaa !10
  %8 = ptrtoint ptr %7 to i64
  %9 = and i64 %8, 1
  %.not = icmp eq i64 %9, 0
  br i1 %.not, label %10, label %lean_inc.exit27

10:                                               ; preds = %5
  %.val.i = load i32, ptr %7, align 4, !tbaa !4
  %11 = icmp sgt i32 %.val.i, 0
  br i1 %11, label %12, label %14, !prof !9

12:                                               ; preds = %10
  %13 = add nuw i32 %.val.i, 1
  store i32 %13, ptr %7, align 4, !tbaa !4
  br label %lean_inc.exit27

14:                                               ; preds = %10
  %.not.i28 = icmp eq i32 %.val.i, 0
  br i1 %.not.i28, label %lean_inc.exit27, label %15

15:                                               ; preds = %14
  tail call void @lean_inc_ref_cold(ptr noundef nonnull %7) #4
  br label %lean_inc.exit27

lean_inc.exit27:                                  ; preds = %15, %14, %12, %5
  %16 = getelementptr inbounds nuw i8, ptr %1, i64 16
  %17 = load ptr, ptr %16, align 8, !tbaa !10
  %18 = ptrtoint ptr %17 to i64
  %19 = and i64 %18, 1
  %.not38 = icmp eq i64 %19, 0
  br i1 %.not38, label %20, label %lean_inc.exit26

20:                                               ; preds = %lean_inc.exit27
  %.val.i29 = load i32, ptr %17, align 4, !tbaa !4
  %21 = icmp sgt i32 %.val.i29, 0
  br i1 %21, label %22, label %24, !prof !9

22:                                               ; preds = %20
  %23 = add nuw i32 %.val.i29, 1
  store i32 %23, ptr %17, align 4, !tbaa !4
  br label %lean_inc.exit26

24:                                               ; preds = %20
  %.not.i30 = icmp eq i32 %.val.i29, 0
  br i1 %.not.i30, label %lean_inc.exit26, label %25

25:                                               ; preds = %24
  tail call void @lean_inc_ref_cold(ptr noundef nonnull %17) #4
  br label %lean_inc.exit26

lean_inc.exit26:                                  ; preds = %25, %24, %22, %lean_inc.exit27
  %26 = ptrtoint ptr %1 to i64
  %27 = and i64 %26, 1
  %.not39 = icmp eq i64 %27, 0
  br i1 %.not39, label %28, label %lean_dec.exit

28:                                               ; preds = %lean_inc.exit26
  %29 = load i32, ptr %1, align 4, !tbaa !4
  %30 = icmp sgt i32 %29, 1
  br i1 %30, label %31, label %33, !prof !9

31:                                               ; preds = %28
  %32 = add nsw i32 %29, -1
  store i32 %32, ptr %1, align 4, !tbaa !4
  br label %lean_dec.exit

33:                                               ; preds = %28
  %.not.i = icmp eq i32 %29, 0
  br i1 %.not.i, label %lean_dec.exit, label %34

34:                                               ; preds = %33
  tail call void @lean_dec_ref_cold(ptr noundef nonnull %1) #4
  br label %lean_dec.exit

lean_dec.exit:                                    ; preds = %34, %33, %31, %lean_inc.exit26
  %35 = load ptr, ptr @l_Lean_Elab_Tactic_classical___rarg___closed__1, align 8, !tbaa !10
  br i1 %.not38, label %36, label %lean_inc.exit25

36:                                               ; preds = %lean_dec.exit
  %.val.i32 = load i32, ptr %17, align 4, !tbaa !4
  %37 = icmp sgt i32 %.val.i32, 0
  br i1 %37, label %38, label %40, !prof !9

38:                                               ; preds = %36
  %39 = add nuw i32 %.val.i32, 1
  store i32 %39, ptr %17, align 4, !tbaa !4
  br label %lean_inc.exit25

40:                                               ; preds = %36
  %.not.i33 = icmp eq i32 %.val.i32, 0
  br i1 %.not.i33, label %lean_inc.exit25, label %41

41:                                               ; preds = %40
  tail call void @lean_inc_ref_cold(ptr noundef nonnull %17) #4
  br label %lean_inc.exit25

lean_inc.exit25:                                  ; preds = %41, %40, %38, %lean_dec.exit
  %42 = tail call ptr @lean_apply_1(ptr noundef %17, ptr noundef %35) #4
  br i1 %.not, label %43, label %lean_inc.exit

43:                                               ; preds = %lean_inc.exit25
  %.val.i35 = load i32, ptr %7, align 4, !tbaa !4
  %44 = icmp sgt i32 %.val.i35, 0
  br i1 %44, label %45, label %47, !prof !9

45:                                               ; preds = %43
  %46 = add nuw i32 %.val.i35, 1
  store i32 %46, ptr %7, align 4, !tbaa !4
  br label %lean_inc.exit

47:                                               ; preds = %43
  %.not.i36 = icmp eq i32 %.val.i35, 0
  br i1 %.not.i36, label %lean_inc.exit, label %48

48:                                               ; preds = %47
  tail call void @lean_inc_ref_cold(ptr noundef nonnull %7) #4
  br label %lean_inc.exit

lean_inc.exit:                                    ; preds = %48, %47, %45, %lean_inc.exit25
  tail call void @lean_inc_heartbeat() #4
  %49 = tail call noalias ptr @mi_malloc_small(i64 noundef 72) #4
  %50 = icmp eq ptr %49, null
  br i1 %50, label %51, label %lean_alloc_closure.exit

51:                                               ; preds = %lean_inc.exit
  tail call void @lean_internal_panic_out_of_memory() #5
  unreachable

lean_alloc_closure.exit:                          ; preds = %lean_inc.exit
  %52 = getelementptr inbounds nuw i8, ptr %49, i64 4
  store i32 1, ptr %49, align 4, !tbaa !4
  store i32 -184549304, ptr %52, align 4
  %53 = getelementptr inbounds nuw i8, ptr %49, i64 8
  store ptr @l_Lean_Elab_Tactic_classical___rarg___lambda__4___boxed, ptr %53, align 8, !tbaa !10
  %54 = getelementptr inbounds nuw i8, ptr %49, i64 16
  store i16 7, ptr %54, align 8, !tbaa !12
  %55 = getelementptr inbounds nuw i8, ptr %49, i64 18
  store i16 6, ptr %55, align 2, !tbaa !12
  %56 = getelementptr inbounds nuw i8, ptr %49, i64 24
  store ptr %3, ptr %56, align 8, !tbaa !10
  %57 = getelementptr inbounds nuw i8, ptr %49, i64 32
  store ptr %0, ptr %57, align 8, !tbaa !10
  %58 = getelementptr inbounds nuw i8, ptr %49, i64 40
  store ptr %17, ptr %58, align 8, !tbaa !10
  %59 = getelementptr inbounds nuw i8, ptr %49, i64 48
  store ptr %2, ptr %59, align 8, !tbaa !10
  %60 = getelementptr inbounds nuw i8, ptr %49, i64 56
  store ptr %4, ptr %60, align 8, !tbaa !10
  %61 = getelementptr inbounds nuw i8, ptr %49, i64 64
  store ptr %7, ptr %61, align 8, !tbaa !10
  %62 = tail call ptr @lean_apply_4(ptr noundef %7, ptr noundef nonnull inttoptr (i64 1 to ptr), ptr noundef nonnull inttoptr (i64 1 to ptr), ptr noundef %42, ptr noundef nonnull %49) #4
  ret ptr %62
}